; Function Attrs: nounwind sspstrong uwtable
define dso_local noundef zeroext i1 @riscv_itrigger_enabled(ptr noundef readonly captures(none) %env) local_unnamed_addr #0 {
entry:
  %tdata1.i = getelementptr inbounds nuw i8, ptr %env, i64 8360
  %0 = getelementptr i8, ptr %env, i64 5008
  %env.val.i = load i32, ptr %0, align 16
  %virt_enabled.i = getelementptr inbounds nuw i8, ptr %env, i64 5056
  %priv.i = getelementptr inbounds nuw i8, ptr %env, i64 5048
  %env.val.i.off = add i32 %env.val.i, -1
  %switch = icmp ult i32 %env.val.i.off, 3
  br i1 %switch, label %entry.split, label %do.body.i.i

entry.split:                                      ; preds = %entry
  %cond = icmp eq i32 %env.val.i, 1
  br i1 %cond, label %for.body.us, label %for.body

for.body.us:                                      ; preds = %entry.split, %for.body.us.backedge
  %cmp.us = phi i1 [ false, %for.body.us.backedge ], [ true, %entry.split ]
  %indvars.iv18 = phi i64 [ 1, %for.body.us.backedge ], [ 0, %entry.split ]
  %arrayidx.i.us = getelementptr [2 x i64], ptr %tdata1.i, i64 0, i64 %indvars.iv18
  %1 = load i64, ptr %arrayidx.i.us, align 8
  %2 = and i64 %1, 4026531840
  %cmp1.not.us = icmp eq i64 %2, 805306368
  br i1 %cmp1.not.us, label %if.end.us, label %for.inc.us

if.end.us:                                        ; preds = %for.body.us
  %3 = load i8, ptr %virt_enabled.i, align 16
  %tobool.i.us = trunc i8 %3 to i1
  %4 = load i64, ptr %priv.i, align 8
  br i1 %tobool.i.us, label %if.then.i.us, label %if.else.i.us

if.else.i.us:                                     ; preds = %if.end.us
  %and6.i.us = lshr i64 %1, 9
  %div712.i.us = and i64 %and6.i.us, 1
  %cmp9.i.us = icmp eq i64 %div712.i.us, %4
  br i1 %cmp9.i.us, label %for.inc.us, label %lor.lhs.false.i.us

lor.lhs.false.i.us:                               ; preds = %if.else.i.us
  %and10.i.us = lshr i64 %1, 7
  %div1113.i.us = and i64 %and10.i.us, 1
  %cmp13.i.us = icmp eq i64 %div1113.i.us, %4
  br i1 %cmp13.i.us, label %for.inc.us, label %check_itrigger_priv.exit.us

check_itrigger_priv.exit.us:                      ; preds = %lor.lhs.false.i.us
  %and15.i.us = lshr i64 %1, 6
  %div1614.i.us = and i64 %and15.i.us, 1
  %cmp18.i.us = icmp eq i64 %div1614.i.us, %4
  br i1 %cmp18.i.us, label %for.inc.us, label %if.end5.us

if.then.i.us:                                     ; preds = %if.end.us
  %and.i.us = lshr i64 %1, 26
  %div15.i.us = and i64 %and.i.us, 1
  %cmp.i.us = icmp eq i64 %div15.i.us, %4
  %and2.i.us = lshr i64 %1, 25
  %div316.i.us = and i64 %and2.i.us, 1
  %cmp5.i.us = icmp eq i64 %div316.i.us, %4
  %5 = or i1 %cmp.i.us, %cmp5.i.us
  br i1 %5, label %for.inc.us, label %if.end5.us

if.end5.us:                                       ; preds = %if.then.i.us, %check_itrigger_priv.exit.us
  %6 = and i64 %1, 16776192
  %tobool.not.us = icmp ne i64 %6, 0
  %cmp.us.not = xor i1 %cmp.us, true
  %brmerge = or i1 %tobool.not.us, %cmp.us.not
  br i1 %brmerge, label %return, label %for.body.us.backedge

for.inc.us:                                       ; preds = %if.then.i.us, %check_itrigger_priv.exit.us, %lor.lhs.false.i.us, %if.else.i.us, %for.body.us
  br i1 %cmp.us, label %for.body.us.backedge, label %return

for.body.us.backedge:                             ; preds = %for.inc.us, %if.end5.us
  br label %for.body.us, !llvm.loop !5

for.body:                                         ; preds = %entry.split, %for.body.backedge
  %cmp = phi i1 [ false, %for.body.backedge ], [ true, %entry.split ]
  %indvars.iv = phi i64 [ 1, %for.body.backedge ], [ 0, %entry.split ]
  %arrayidx.i = getelementptr [2 x i64], ptr %tdata1.i, i64 0, i64 %indvars.iv
  %7 = load i64, ptr %arrayidx.i, align 8
  %shr.i2.i.i.mask = and i64 %7, -1152921504606846976
  %cmp1.not = icmp eq i64 %shr.i2.i.i.mask, 3458764513820540928
  br i1 %cmp1.not, label %if.end, label %for.inc

do.body.i.i:                                      ; preds = %entry
  tail call void @g_assertion_message_expr(ptr noundef null, ptr noundef nonnull @.str, i32 noundef 87, ptr noundef nonnull @__func__.extract_trigger_type, ptr noundef null) #7
  unreachable

if.end:                                           ; preds = %for.body
  %8 = load i8, ptr %virt_enabled.i, align 16
  %tobool.i = trunc i8 %8 to i1
  %9 = load i64, ptr %priv.i, align 8
  br i1 %tobool.i, label %if.then.i, label %if.else.i

if.then.i:                                        ; preds = %if.end
  %and.i = lshr i64 %7, 26
  %div15.i = and i64 %and.i, 1
  %cmp.i = icmp eq i64 %div15.i, %9
  %and2.i = lshr i64 %7, 25
  %div316.i = and i64 %and2.i, 1
  %cmp5.i = icmp eq i64 %div316.i, %9
  %10 = or i1 %cmp.i, %cmp5.i
  br i1 %10, label %for.inc, label %if.end5

if.else.i:                                        ; preds = %if.end
  %and6.i = lshr i64 %7, 9
  %div712.i = and i64 %and6.i, 1
  %cmp9.i = icmp eq i64 %div712.i, %9
  br i1 %cmp9.i, label %for.inc, label %lor.lhs.false.i

lor.lhs.false.i:                                  ; preds = %if.else.i
  %and10.i = lshr i64 %7, 7
  %div1113.i = and i64 %and10.i, 1
  %cmp13.i = icmp eq i64 %div1113.i, %9
  br i1 %cmp13.i, label %for.inc, label %check_itrigger_priv.exit

check_itrigger_priv.exit:                         ; preds = %lor.lhs.false.i
  %and15.i = lshr i64 %7, 6
  %div1614.i = and i64 %and15.i, 1
  %cmp18.i = icmp eq i64 %div1614.i, %9
  br i1 %cmp18.i, label %for.inc, label %if.end5

if.end5:                                          ; preds = %if.then.i, %check_itrigger_priv.exit
  %11 = and i64 %7, 16776192
  %tobool.not = icmp ne i64 %11, 0
  %cmp.not = xor i1 %cmp, true
  %brmerge25 = or i1 %tobool.not, %cmp.not
  br i1 %brmerge25, label %return, label %for.body.backedge

for.inc:                                          ; preds = %if.else.i, %lor.lhs.false.i, %if.then.i, %check_itrigger_priv.exit, %for.body
  br i1 %cmp, label %for.body.backedge, label %return

for.body.backedge:                                ; preds = %for.inc, %if.end5
  br label %for.body, !llvm.loop !5

return:                                           ; preds = %for.inc, %if.end5, %for.inc.us, %if.end5.us
  %.us-phi = phi i1 [ false, %for.inc.us ], [ %tobool.not.us, %if.end5.us ], [ false, %for.inc ], [ %tobool.not, %if.end5 ]
  ret i1 %.us-phi
}